; ModuleID = '2/672.c'
source_filename = "2/672.c"
target datalayout = "e-m:e-p270:32:32-p271:32:32-p272:64:64-i64:64-f80:128-n8:16:32:64-S128"
target triple = "x86_64-pc-linux-gnu"

%struct.book = type { i32, [27 x i8] }

@.str = private unnamed_addr constant [3 x i8] c"%d\00", align 1
@.str.1 = private unnamed_addr constant [6 x i8] c"%d %s\00", align 1
@b = common dso_local global [1001 x %struct.book] zeroinitializer, align 16
@.str.2 = private unnamed_addr constant [7 x i8] c"%c\0A%d\0A\00", align 1
@.str.3 = private unnamed_addr constant [4 x i8] c"%d\0A\00", align 1

; Function Attrs: noinline nounwind uwtable
define dso_local void @main() #0 {
  %1 = alloca i32, align 4
  %2 = alloca i32, align 4
  %3 = alloca i32, align 4
  %4 = alloca i32, align 4
  %5 = alloca i32, align 4
  %6 = alloca [27 x i32], align 16
  %7 = alloca i32, align 4
  %8 = alloca i32, align 4
  %9 = alloca i32, align 4
  %10 = alloca i8, align 1
  %11 = alloca i8, align 1
  store i32 0, i32* %7, align 4
  store i32 0, i32* %8, align 4
  %12 = call i32 (i8*, ...) @__isoc99_scanf(i8* getelementptr inbounds ([3 x i8], [3 x i8]* @.str, i64 0, i64 0), i32* %1)
  store i32 0, i32* %2, align 4
  br label %13

13:                                               ; preds = %28, %0
  %14 = load i32, i32* %2, align 4
  %15 = load i32, i32* %1, align 4
  %16 = icmp slt i32 %14, %15
  br i1 %16, label %17, label %31

17:                                               ; preds = %13
  %18 = load i32, i32* %2, align 4
  %19 = sext i32 %18 to i64
  %20 = getelementptr inbounds [1001 x %struct.book], [1001 x %struct.book]* @b, i64 0, i64 %19
  %21 = getelementptr inbounds %struct.book, %struct.book* %20, i32 0, i32 0
  %22 = load i32, i32* %2, align 4
  %23 = sext i32 %22 to i64
  %24 = getelementptr inbounds [1001 x %struct.book], [1001 x %struct.book]* @b, i64 0, i64 %23
  %25 = getelementptr inbounds %struct.book, %struct.book* %24, i32 0, i32 1
  %26 = getelementptr inbounds [27 x i8], [27 x i8]* %25, i64 0, i64 0
  %27 = call i32 (i8*, ...) @__isoc99_scanf(i8* getelementptr inbounds ([6 x i8], [6 x i8]* @.str.1, i64 0, i64 0), i32* %21, i8* %26)
  br label %28

28:                                               ; preds = %17
  %29 = load i32, i32* %2, align 4
  %30 = add nsw i32 %29, 1
  store i32 %30, i32* %2, align 4
  br label %13

31:                                               ; preds = %13
  store i8 65, i8* %10, align 1
  store i32 0, i32* %4, align 4
  br label %32

32:                                               ; preds = %102, %31
  %33 = load i32, i32* %4, align 4
  %34 = icmp slt i32 %33, 26
  br i1 %34, label %35, label %105

35:                                               ; preds = %32
  store i32 0, i32* %5, align 4
  store i32 0, i32* %2, align 4
  br label %36

36:                                               ; preds = %77, %35
  %37 = load i32, i32* %2, align 4
  %38 = load i32, i32* %1, align 4
  %39 = icmp slt i32 %37, %38
  br i1 %39, label %40, label %80

40:                                               ; preds = %36
  store i32 0, i32* %3, align 4
  br label %41

41:                                               ; preds = %73, %40
  %42 = load i32, i32* %3, align 4
  %43 = icmp slt i32 %42, 26
  br i1 %43, label %44, label %76

44:                                               ; preds = %41
  %45 = load i32, i32* %2, align 4
  %46 = sext i32 %45 to i64
  %47 = getelementptr inbounds [1001 x %struct.book], [1001 x %struct.book]* @b, i64 0, i64 %46
  %48 = getelementptr inbounds %struct.book, %struct.book* %47, i32 0, i32 1
  %49 = load i32, i32* %3, align 4
  %50 = sext i32 %49 to i64
  %51 = getelementptr inbounds [27 x i8], [27 x i8]* %48, i64 0, i64 %50
  %52 = load i8, i8* %51, align 1
  %53 = sext i8 %52 to i32
  %54 = load i8, i8* %10, align 1
  %55 = sext i8 %54 to i32
  %56 = icmp eq i32 %53, %55
  br i1 %56, label %57, label %60

57:                                               ; preds = %44
  %58 = load i32, i32* %5, align 4
  %59 = add nsw i32 %58, 1
  store i32 %59, i32* %5, align 4
  br label %60

60:                                               ; preds = %57, %44
  %61 = load i32, i32* %2, align 4
  %62 = sext i32 %61 to i64
  %63 = getelementptr inbounds [1001 x %struct.book], [1001 x %struct.book]* @b, i64 0, i64 %62
  %64 = getelementptr inbounds %struct.book, %struct.book* %63, i32 0, i32 1
  %65 = load i32, i32* %3, align 4
  %66 = sext i32 %65 to i64
  %67 = getelementptr inbounds [27 x i8], [27 x i8]* %64, i64 0, i64 %66
  %68 = load i8, i8* %67, align 1
  %69 = sext i8 %68 to i32
  %70 = icmp eq i32 %69, 0
  br i1 %70, label %71, label %72

71:                                               ; preds = %60
  br label %76

72:                                               ; preds = %60
  br label %73

73:                                               ; preds = %72
  %74 = load i32, i32* %3, align 4
  %75 = add nsw i32 %74, 1
  store i32 %75, i32* %3, align 4
  br label %41

76:                                               ; preds = %71, %41
  br label %77

77:                                               ; preds = %76
  %78 = load i32, i32* %2, align 4
  %79 = add nsw i32 %78, 1
  store i32 %79, i32* %2, align 4
  br label %36

80:                                               ; preds = %36
  %81 = load i8, i8* %10, align 1
  %82 = sext i8 %81 to i32
  %83 = add nsw i32 %82, 1
  %84 = trunc i32 %83 to i8
  store i8 %84, i8* %10, align 1
  %85 = load i32, i32* %5, align 4
  %86 = load i32, i32* %4, align 4
  %87 = sext i32 %86 to i64
  %88 = getelementptr inbounds [27 x i32], [27 x i32]* %6, i64 0, i64 %87
  store i32 %85, i32* %88, align 4
  %89 = load i32, i32* %4, align 4
  %90 = sext i32 %89 to i64
  %91 = getelementptr inbounds [27 x i32], [27 x i32]* %6, i64 0, i64 %90
  %92 = load i32, i32* %91, align 4
  %93 = load i32, i32* %7, align 4
  %94 = icmp sgt i32 %92, %93
  br i1 %94, label %95, label %101

95:                                               ; preds = %80
  %96 = load i32, i32* %4, align 4
  %97 = sext i32 %96 to i64
  %98 = getelementptr inbounds [27 x i32], [27 x i32]* %6, i64 0, i64 %97
  %99 = load i32, i32* %98, align 4
  store i32 %99, i32* %7, align 4
  %100 = load i32, i32* %4, align 4
  store i32 %100, i32* %8, align 4
  br label %101

101:                                              ; preds = %95, %80
  br label %102

102:                                              ; preds = %101
  %103 = load i32, i32* %4, align 4
  %104 = add nsw i32 %103, 1
  store i32 %104, i32* %4, align 4
  br label %32

105:                                              ; preds = %32
  %106 = load i32, i32* %8, align 4
  %107 = add nsw i32 65, %106
  %108 = trunc i32 %107 to i8
  store i8 %108, i8* %11, align 1
  %109 = load i8, i8* %11, align 1
  %110 = sext i8 %109 to i32
  %111 = load i32, i32* %7, align 4
  %112 = call i32 (i8*, ...) @printf(i8* getelementptr inbounds ([7 x i8], [7 x i8]* @.str.2, i64 0, i64 0), i32 %110, i32 %111)
  store i32 0, i32* %2, align 4
  br label %113

113:                                              ; preds = %164, %105
  %114 = load i32, i32* %2, align 4
  %115 = load i32, i32* %1, align 4
  %116 = icmp slt i32 %114, %115
  br i1 %116, label %117, label %167

117:                                              ; preds = %113
  store i32 0, i32* %5, align 4
  store i32 0, i32* %3, align 4
  br label %118

118:                                              ; preds = %150, %117
  %119 = load i32, i32* %3, align 4
  %120 = icmp slt i32 %119, 26
  br i1 %120, label %121, label %153

121:                                              ; preds = %118
  %122 = load i32, i32* %2, align 4
  %123 = sext i32 %122 to i64
  %124 = getelementptr inbounds [1001 x %struct.book], [1001 x %struct.book]* @b, i64 0, i64 %123
  %125 = getelementptr inbounds %struct.book, %struct.book* %124, i32 0, i32 1
  %126 = load i32, i32* %3, align 4
  %127 = sext i32 %126 to i64
  %128 = getelementptr inbounds [27 x i8], [27 x i8]* %125, i64 0, i64 %127
  %129 = load i8, i8* %128, align 1
  %130 = sext i8 %129 to i32
  %131 = load i8, i8* %11, align 1
  %132 = sext i8 %131 to i32
  %133 = icmp eq i32 %130, %132
  br i1 %133, label %134, label %137

134:                                              ; preds = %121
  %135 = load i32, i32* %5, align 4
  %136 = add nsw i32 %135, 1
  store i32 %136, i32* %5, align 4
  br label %137

137:                                              ; preds = %134, %121
  %138 = load i32, i32* %2, align 4
  %139 = sext i32 %138 to i64
  %140 = getelementptr inbounds [1001 x %struct.book], [1001 x %struct.book]* @b, i64 0, i64 %139
  %141 = getelementptr inbounds %struct.book, %struct.book* %140, i32 0, i32 1
  %142 = load i32, i32* %3, align 4
  %143 = sext i32 %142 to i64
  %144 = getelementptr inbounds [27 x i8], [27 x i8]* %141, i64 0, i64 %143
  %145 = load i8, i8* %144, align 1
  %146 = sext i8 %145 to i32
  %147 = icmp eq i32 %146, 0
  br i1 %147, label %148, label %149

148:                                              ; preds = %137
  br label %153

149:                                              ; preds = %137
  br label %150

150:                                              ; preds = %149
  %151 = load i32, i32* %3, align 4
  %152 = add nsw i32 %151, 1
  store i32 %152, i32* %3, align 4
  br label %118

153:                                              ; preds = %148, %118
  %154 = load i32, i32* %5, align 4
  %155 = icmp ne i32 %154, 0
  br i1 %155, label %156, label %163

156:                                              ; preds = %153
  %157 = load i32, i32* %2, align 4
  %158 = sext i32 %157 to i64
  %159 = getelementptr inbounds [1001 x %struct.book], [1001 x %struct.book]* @b, i64 0, i64 %158
  %160 = getelementptr inbounds %struct.book, %struct.book* %159, i32 0, i32 0
  %161 = load i32, i32* %160, align 16
  %162 = call i32 (i8*, ...) @printf(i8* getelementptr inbounds ([4 x i8], [4 x i8]* @.str.3, i64 0, i64 0), i32 %161)
  br label %163

163:                                              ; preds = %156, %153
  br label %164

164:                                              ; preds = %163
  %165 = load i32, i32* %2, align 4
  %166 = add nsw i32 %165, 1
  store i32 %166, i32* %2, align 4
  br label %113

167:                                              ; preds = %113
  ret void
}

declare dso_local i32 @__isoc99_scanf(i8*, ...) #1

declare dso_local i32 @printf(i8*, ...) #1


!llvm.module.flags = !{!0}
!llvm.ident = !{!1}

!0 = !{i32 1, !"wchar_size", i32 4}
!1 = !{!"clang version 10.0.0-4ubuntu1 "}
